; Function Attrs: mustprogress nounwind uwtable
define hidden void @_ZN23ObjectSampleDescription17write_thread_nameEv(ptr nocapture noundef nonnull align 8 dereferenceable(128) %0) local_unnamed_addr #1 align 2 {
  %2 = getelementptr inbounds i8, ptr %0, i64 120
  %3 = load ptr, ptr %2, align 8
  %4 = tail call noundef ptr @_ZN16java_lang_Thread4nameEP7oopDesc(ptr noundef %3) #10
  %.not = icmp eq ptr %4, null
  br i1 %.not, label %_ZN23ObjectSampleDescription10write_textEPKc.exit15, label %5

5:                                                ; preds = %1
  %6 = tail call noundef ptr @_ZN16java_lang_String14as_utf8_stringEP7oopDesc(ptr noundef nonnull %4) #10
  %.not6 = icmp eq ptr %6, null
  br i1 %.not6, label %_ZN23ObjectSampleDescription10write_textEPKc.exit15, label %7

7:                                                ; preds = %5
  %8 = getelementptr inbounds i8, ptr %0, i64 8
  %9 = getelementptr inbounds i8, ptr %0, i64 112
  %10 = load i64, ptr %9, align 8
  %11 = icmp eq i64 %10, 98
  br i1 %11, label %_ZN23ObjectSampleDescription10write_textEPKc.exit15, label %.lr.ph.i.i

.lr.ph.i.i:                                       ; preds = %7, %15
  %12 = phi i64 [ %18, %15 ], [ %10, %7 ]
  %13 = phi i8 [ %19, %15 ], [ 84, %7 ]
  %.07.i.i.idx = phi i64 [ %.07.i.i.add, %15 ], [ 0, %7 ]
  %14 = icmp ult i64 %12, 98
  br i1 %14, label %15, label %.critedge.i.i

15:                                               ; preds = %.lr.ph.i.i
  %16 = getelementptr inbounds [100 x i8], ptr %8, i64 0, i64 %12
  store i8 %13, ptr %16, align 1
  %17 = load i64, ptr %9, align 8
  %18 = add i64 %17, 1
  store i64 %18, ptr %9, align 8
  %.07.i.i.add = add nuw nsw i64 %.07.i.i.idx, 1
  %.ptr = getelementptr inbounds i8, ptr @.str.8, i64 %.07.i.i.add
  %19 = load i8, ptr %.ptr, align 1
  %exitcond = icmp eq i64 %.07.i.i.add, 13
  br i1 %exitcond, label %.critedge.i.i, label %.lr.ph.i.i, !llvm.loop !6

.critedge.i.i:                                    ; preds = %15, %.lr.ph.i.i
  %.pre.i.i = phi i64 [ %18, %15 ], [ %12, %.lr.ph.i.i ]
  %20 = icmp eq i64 %.pre.i.i, 98
  br i1 %20, label %21, label %_ZN23ObjectSampleDescription10write_textEPKc.exit

21:                                               ; preds = %.critedge.i.i
  %22 = getelementptr inbounds i8, ptr %0, i64 103
  store i8 46, ptr %22, align 1
  %23 = getelementptr inbounds i8, ptr %0, i64 104
  store i8 46, ptr %23, align 8
  %24 = getelementptr inbounds i8, ptr %0, i64 105
  store i8 46, ptr %24, align 1
  br label %_ZN23ObjectSampleDescription10write_textEPKc.exit

_ZN23ObjectSampleDescription10write_textEPKc.exit: ; preds = %.critedge.i.i, %21
  %25 = getelementptr inbounds [100 x i8], ptr %8, i64 0, i64 %.pre.i.i
  store i8 0, ptr %25, align 1
  %.pr = load i64, ptr %9, align 8
  %26 = icmp eq i64 %.pr, 98
  br i1 %26, label %_ZN23ObjectSampleDescription10write_textEPKc.exit15, label %.preheader.i.i7

.preheader.i.i7:                                  ; preds = %_ZN23ObjectSampleDescription10write_textEPKc.exit
  %27 = load i8, ptr %6, align 1
  %.not6.i.i = icmp eq i8 %27, 0
  br i1 %.not6.i.i, label %.critedge.thread.i.i12, label %.lr.ph.i.i8

.lr.ph.i.i8:                                      ; preds = %.preheader.i.i7, %31
  %28 = phi i64 [ %34, %31 ], [ %.pr, %.preheader.i.i7 ]
  %29 = phi i8 [ %36, %31 ], [ %27, %.preheader.i.i7 ]
  %.07.i.i9 = phi ptr [ %35, %31 ], [ %6, %.preheader.i.i7 ]
  %30 = icmp ult i64 %28, 98
  br i1 %30, label %31, label %.critedge.i.i10

31:                                               ; preds = %.lr.ph.i.i8
  %32 = getelementptr inbounds [100 x i8], ptr %8, i64 0, i64 %28
  store i8 %29, ptr %32, align 1
  %33 = load i64, ptr %9, align 8
  %34 = add i64 %33, 1
  store i64 %34, ptr %9, align 8
  %35 = getelementptr inbounds i8, ptr %.07.i.i9, i64 1
  %36 = load i8, ptr %35, align 1
  %.not.i.i14 = icmp eq i8 %36, 0
  br i1 %.not.i.i14, label %.critedge.i.i10, label %.lr.ph.i.i8, !llvm.loop !6

.critedge.i.i10:                                  ; preds = %31, %.lr.ph.i.i8
  %.pre.i.i11 = phi i64 [ %34, %31 ], [ %28, %.lr.ph.i.i8 ]
  %37 = icmp eq i64 %.pre.i.i11, 98
  br i1 %37, label %38, label %.critedge.thread.i.i12

38:                                               ; preds = %.critedge.i.i10
  %39 = getelementptr inbounds i8, ptr %0, i64 103
  store i8 46, ptr %39, align 1
  %40 = getelementptr inbounds i8, ptr %0, i64 104
  store i8 46, ptr %40, align 8
  %41 = getelementptr inbounds i8, ptr %0, i64 105
  store i8 46, ptr %41, align 1
  br label %.critedge.thread.i.i12

.critedge.thread.i.i12:                           ; preds = %38, %.critedge.i.i10, %.preheader.i.i7
  %.pre11.i.i13 = phi i64 [ 98, %38 ], [ %.pre.i.i11, %.critedge.i.i10 ], [ %.pr, %.preheader.i.i7 ]
  %42 = getelementptr inbounds [100 x i8], ptr %8, i64 0, i64 %.pre11.i.i13
  store i8 0, ptr %42, align 1
  br label %_ZN23ObjectSampleDescription10write_textEPKc.exit15

_ZN23ObjectSampleDescription10write_textEPKc.exit15: ; preds = %7, %.critedge.thread.i.i12, %_ZN23ObjectSampleDescription10write_textEPKc.exit, %5, %1
  ret void
}